target datalayout = "e-m:e-p270:32:32-p271:32:32-p272:64:64-i64:64-i128:128-f80:128-n8:16:32:64-S128"
target triple = "x86_64-pc-linux-gnu"

%"class.lean::object_compactor" = type { %"class.std::unordered_map", %"class.std::unique_ptr", %"class.std::vector", %"class.std::vector", ptr, ptr, ptr, ptr }
%"class.std::unordered_map" = type { %"class.std::_Hashtable" }
%"class.std::_Hashtable" = type { ptr, i64, %"struct.std::__detail::_Hash_node_base", i64, %"struct.std::__detail::_Prime_rehash_policy", ptr }
%"struct.std::__detail::_Hash_node_base" = type { ptr }
%"struct.std::__detail::_Prime_rehash_policy" = type { float, i64 }
%"class.std::unique_ptr" = type { %"struct.std::__uniq_ptr_data" }
%"struct.std::__uniq_ptr_data" = type { %"class.std::__uniq_ptr_impl" }
%"class.std::__uniq_ptr_impl" = type { %"class.std::tuple" }
%"class.std::tuple" = type { %"struct.std::_Tuple_impl" }
%"struct.std::_Tuple_impl" = type { %"struct.std::_Head_base.3" }
%"struct.std::_Head_base.3" = type { ptr }
%"class.std::vector" = type { %"struct.std::_Vector_base" }
%"struct.std::_Vector_base" = type { %"struct.std::_Vector_base<lean_object *, std::allocator<lean_object *>>::_Vector_impl" }
%"struct.std::_Vector_base<lean_object *, std::allocator<lean_object *>>::_Vector_impl" = type { %"struct.std::_Vector_base<lean_object *, std::allocator<lean_object *>>::_Vector_impl_data" }
%"struct.std::_Vector_base<lean_object *, std::allocator<lean_object *>>::_Vector_impl_data" = type { ptr, ptr, ptr }
%"struct.std::pair.20" = type { ptr, ptr }
%"struct.std::pair" = type <{ %"struct.std::__detail::_Node_iterator", i8, [7 x i8] }>
%"struct.std::__detail::_Node_iterator" = type { %"struct.std::__detail::_Node_iterator_base" }
%"struct.std::__detail::_Node_iterator_base" = type { ptr }
%struct.lean_object = type { i32, i32 }
%"struct.lean::mpz_object" = type { %struct.lean_object, %"class.lean::mpz" }
%"class.lean::mpz" = type { [1 x %struct.__mpz_struct] }
%struct.__mpz_struct = type { i32, i32, ptr }

; Function Attrs: mustprogress uwtable
define linkonce_odr hidden { ptr, i8 } @_ZNSt10_HashtableIP11lean_objectSt4pairIKS1_S1_E16mi_stl_allocatorIS4_ENSt8__detail10_Select1stESt8equal_toIS1_ESt4hashIS1_ENS7_18_Mod_range_hashingENS7_20_Default_ranged_hashENS7_20_Prime_rehash_policyENS7_17_Hashtable_traitsILb0ELb0ELb1EEEE7emplaceIJS2_IS1_S1_EEEES2_INS7_14_Node_iteratorIS4_Lb0ELb0EEEbEDpOT_(ptr noundef nonnull align 8 dereferenceable(56) %0, ptr noundef nonnull align 8 dereferenceable(16) %1) #0 comdat align 2 {
  %3 = alloca %"struct.std::pair", align 8
  %4 = alloca ptr, align 8
  %5 = alloca ptr, align 8
  %6 = alloca { ptr, i8 }, align 8
  store ptr %0, ptr %4, align 8, !tbaa !126
  store ptr %1, ptr %5, align 8, !tbaa !48
  %7 = load ptr, ptr %4, align 8
  %8 = load ptr, ptr %5, align 8, !tbaa !48
  %9 = call { ptr, i8 } @_ZNSt10_HashtableIP11lean_objectSt4pairIKS1_S1_E16mi_stl_allocatorIS4_ENSt8__detail10_Select1stESt8equal_toIS1_ESt4hashIS1_ENS7_18_Mod_range_hashingENS7_20_Default_ranged_hashENS7_20_Prime_rehash_policyENS7_17_Hashtable_traitsILb0ELb0ELb1EEEE10_M_emplaceIJS2_IS1_S1_EEEES2_INS7_14_Node_iteratorIS4_Lb0ELb0EEEbESt17integral_constantIbLb1EEDpOT_(ptr noundef nonnull align 8 dereferenceable(56) %7, ptr noundef nonnull align 8 dereferenceable(16) %8)
  store { ptr, i8 } %9, ptr %6, align 8
  call void @llvm.memcpy.p0.p0.i64(ptr align 8 %3, ptr align 8 %6, i64 9, i1 false)
  %10 = load { ptr, i8 }, ptr %3, align 8
  ret { ptr, i8 } %10
}

; Function Attrs: mustprogress nounwind uwtable
define linkonce_odr hidden void @_ZNSt4pairIP11lean_objectS1_EC2IRS1_S1_TnNSt9enable_ifIXaaclsr5_PCCPE22_MoveConstructiblePairIT_T0_EEclsr5_PCCPE30_ImplicitlyMoveConvertiblePairIS6_S7_EEEbE4typeELb1EEEOS6_OS7_(ptr noundef nonnull align 8 dereferenceable(16) %0, ptr noundef nonnull align 8 dereferenceable(8) %1, ptr noundef nonnull align 8 dereferenceable(8) %2) unnamed_addr #1 comdat align 2 {
  %4 = alloca ptr, align 8
  %5 = alloca ptr, align 8
  %6 = alloca ptr, align 8
  store ptr %0, ptr %4, align 8, !tbaa !48
  store ptr %1, ptr %5, align 8, !tbaa !50
  store ptr %2, ptr %6, align 8, !tbaa !50
  %7 = load ptr, ptr %4, align 8
  %8 = getelementptr inbounds nuw %"struct.std::pair.20", ptr %7, i32 0, i32 0
  %9 = load ptr, ptr %5, align 8, !tbaa !50
  %10 = load ptr, ptr %9, align 8, !tbaa !8
  store ptr %10, ptr %8, align 8, !tbaa !224
  %11 = getelementptr inbounds nuw %"struct.std::pair.20", ptr %7, i32 0, i32 1
  %12 = load ptr, ptr %6, align 8, !tbaa !50
  %13 = load ptr, ptr %12, align 8, !tbaa !8
  store ptr %13, ptr %11, align 8, !tbaa !226
  ret void
}

; Function Attrs: mustprogress uwtable
define linkonce_odr hidden { ptr, i8 } @_ZNSt13unordered_mapIP11lean_objectS1_St4hashIS1_ESt8equal_toIS1_E16mi_stl_allocatorISt4pairIKS1_S1_EEE6insertIS7_IS1_S1_EEENSt9enable_ifIXsr16is_constructibleIS9_OT_EE5valueES7_INSt8__detail14_Node_iteratorIS9_Lb0ELb0EEEbEE4typeESG_(ptr noundef nonnull align 8 dereferenceable(56) %0, ptr noundef nonnull align 8 dereferenceable(16) %1) #0 comdat align 2 {
  %3 = alloca %"struct.std::pair", align 8
  %4 = alloca ptr, align 8
  %5 = alloca ptr, align 8
  %6 = alloca { ptr, i8 }, align 8
  store ptr %0, ptr %4, align 8, !tbaa !34
  store ptr %1, ptr %5, align 8, !tbaa !48
  %7 = load ptr, ptr %4, align 8
  %8 = getelementptr inbounds nuw %"class.std::unordered_map", ptr %7, i32 0, i32 0
  %9 = load ptr, ptr %5, align 8, !tbaa !48
  %10 = call { ptr, i8 } @_ZNSt10_HashtableIP11lean_objectSt4pairIKS1_S1_E16mi_stl_allocatorIS4_ENSt8__detail10_Select1stESt8equal_toIS1_ESt4hashIS1_ENS7_18_Mod_range_hashingENS7_20_Default_ranged_hashENS7_20_Prime_rehash_policyENS7_17_Hashtable_traitsILb0ELb0ELb1EEEE7emplaceIJS2_IS1_S1_EEEES2_INS7_14_Node_iteratorIS4_Lb0ELb0EEEbEDpOT_(ptr noundef nonnull align 8 dereferenceable(56) %8, ptr noundef nonnull align 8 dereferenceable(16) %9)
  store { ptr, i8 } %10, ptr %6, align 8
  call void @llvm.memcpy.p0.p0.i64(ptr align 8 %3, ptr align 8 %6, i64 9, i1 false)
  %11 = load { ptr, i8 }, ptr %3, align 8
  ret { ptr, i8 } %11
}

; Function Attrs: mustprogress uwtable
define linkonce_odr hidden { ptr, ptr } @_ZSt9make_pairIRP11lean_objectS1_ESt4pairINSt25__strip_reference_wrapperINSt5decayIT_E4typeEE6__typeENS4_INS5_IT0_E4typeEE6__typeEEOS6_OSB_(ptr noundef nonnull align 8 dereferenceable(8) %0, ptr noundef nonnull align 8 dereferenceable(8) %1) #0 comdat {
  %3 = alloca %"struct.std::pair.20", align 8
  %4 = alloca ptr, align 8
  %5 = alloca ptr, align 8
  store ptr %0, ptr %4, align 8, !tbaa !50
  store ptr %1, ptr %5, align 8, !tbaa !50
  %6 = load ptr, ptr %4, align 8, !tbaa !50
  %7 = load ptr, ptr %5, align 8, !tbaa !50
  call void @_ZNSt4pairIP11lean_objectS1_EC2IRS1_S1_TnNSt9enable_ifIXaaclsr5_PCCPE22_MoveConstructiblePairIT_T0_EEclsr5_PCCPE30_ImplicitlyMoveConvertiblePairIS6_S7_EEEbE4typeELb1EEEOS6_OS7_(ptr noundef nonnull align 8 dereferenceable(16) %3, ptr noundef nonnull align 8 dereferenceable(8) %6, ptr noundef nonnull align 8 dereferenceable(8) %7)
  %8 = load { ptr, ptr }, ptr %3, align 8
  ret { ptr, ptr } %8
}

; Function Attrs: mustprogress nounwind uwtable
define linkonce_odr hidden noundef i64 @_ZNK4lean16object_compactor4sizeEv(ptr noundef nonnull align 8 dereferenceable(144) %0) #1 comdat align 2 {
  %2 = alloca ptr, align 8
  store ptr %0, ptr %2, align 8, !tbaa !3
  %3 = load ptr, ptr %2, align 8
  %4 = getelementptr inbounds nuw %"class.lean::object_compactor", ptr %3, i32 0, i32 6
  %5 = load ptr, ptr %4, align 8, !tbaa !32
  %6 = getelementptr inbounds nuw %"class.lean::object_compactor", ptr %3, i32 0, i32 5
  %7 = load ptr, ptr %6, align 8, !tbaa !31
  %8 = ptrtoint ptr %5 to i64
  %9 = ptrtoint ptr %7 to i64
  %10 = sub i64 %8, %9
  ret i64 %10
}

; Function Attrs: mustprogress nounwind uwtable
define linkonce_odr hidden noundef i64 @_ZNK4lean16object_compactor8capacityEv(ptr noundef nonnull align 8 dereferenceable(144) %0) #1 comdat align 2 {
  %2 = alloca ptr, align 8
  store ptr %0, ptr %2, align 8, !tbaa !3
  %3 = load ptr, ptr %2, align 8
  %4 = getelementptr inbounds nuw %"class.lean::object_compactor", ptr %3, i32 0, i32 7
  %5 = load ptr, ptr %4, align 8, !tbaa !33
  %6 = getelementptr inbounds nuw %"class.lean::object_compactor", ptr %3, i32 0, i32 5
  %7 = load ptr, ptr %6, align 8, !tbaa !31
  %8 = ptrtoint ptr %5 to i64
  %9 = ptrtoint ptr %7 to i64
  %10 = sub i64 %8, %9
  ret i64 %10
}

; Function Attrs: mustprogress uwtable
define void @_ZN4lean16object_compactor4saveEP11lean_objectS2_(ptr noundef nonnull align 8 dereferenceable(144) %0, ptr noundef %1, ptr noundef %2) #0 align 2 {
  %4 = alloca ptr, align 8
  %5 = alloca ptr, align 8
  %6 = alloca ptr, align 8
  %7 = alloca %"struct.std::pair.20", align 8
  %8 = alloca ptr, align 8
  %9 = alloca %"struct.std::pair", align 8
  store ptr %0, ptr %4, align 8, !tbaa !3
  store ptr %1, ptr %5, align 8, !tbaa !8
  store ptr %2, ptr %6, align 8, !tbaa !8
  %10 = load ptr, ptr %4, align 8
  %11 = getelementptr inbounds nuw %"class.lean::object_compactor", ptr %10, i32 0, i32 0
  call void @llvm.lifetime.start.p0(i64 16, ptr %7) #19
  call void @llvm.lifetime.start.p0(i64 8, ptr %8) #19
  %12 = load ptr, ptr %6, align 8, !tbaa !8
  %13 = getelementptr inbounds nuw %"class.lean::object_compactor", ptr %10, i32 0, i32 5
  %14 = load ptr, ptr %13, align 8, !tbaa !31
  %15 = ptrtoint ptr %12 to i64
  %16 = ptrtoint ptr %14 to i64
  %17 = sub i64 %15, %16
  %18 = getelementptr inbounds nuw %"class.lean::object_compactor", ptr %10, i32 0, i32 4
  %19 = load ptr, ptr %18, align 8, !tbaa !9
  %20 = ptrtoint ptr %19 to i64
  %21 = add i64 %17, %20
  %22 = inttoptr i64 %21 to ptr
  store ptr %22, ptr %8, align 8, !tbaa !8
  %23 = call { ptr, ptr } @_ZSt9make_pairIRP11lean_objectS1_ESt4pairINSt25__strip_reference_wrapperINSt5decayIT_E4typeEE6__typeENS4_INS5_IT0_E4typeEE6__typeEEOS6_OSB_(ptr noundef nonnull align 8 dereferenceable(8) %5, ptr noundef nonnull align 8 dereferenceable(8) %8)
  %24 = getelementptr inbounds nuw { ptr, ptr }, ptr %7, i32 0, i32 0
  %25 = extractvalue { ptr, ptr } %23, 0
  store ptr %25, ptr %24, align 8
  %26 = getelementptr inbounds nuw { ptr, ptr }, ptr %7, i32 0, i32 1
  %27 = extractvalue { ptr, ptr } %23, 1
  store ptr %27, ptr %26, align 8
  %28 = call { ptr, i8 } @_ZNSt13unordered_mapIP11lean_objectS1_St4hashIS1_ESt8equal_toIS1_E16mi_stl_allocatorISt4pairIKS1_S1_EEE6insertIS7_IS1_S1_EEENSt9enable_ifIXsr16is_constructibleIS9_OT_EE5valueES7_INSt8__detail14_Node_iteratorIS9_Lb0ELb0EEEbEE4typeESG_(ptr noundef nonnull align 8 dereferenceable(56) %11, ptr noundef nonnull align 8 dereferenceable(16) %7)
  %29 = getelementptr inbounds nuw { ptr, i8 }, ptr %9, i32 0, i32 0
  %30 = extractvalue { ptr, i8 } %28, 0
  store ptr %30, ptr %29, align 8
  %31 = getelementptr inbounds nuw { ptr, i8 }, ptr %9, i32 0, i32 1
  %32 = extractvalue { ptr, i8 } %28, 1
  store i8 %32, ptr %31, align 8
  call void @llvm.lifetime.end.p0(i64 8, ptr %8) #19
  call void @llvm.lifetime.end.p0(i64 16, ptr %7) #19
  ret void
}

; Function Attrs: inlinehint mustprogress nounwind uwtable
define internal void @_ZL24lean_set_non_heap_headerP11lean_objectmjj(ptr noundef %0, i64 noundef %1, i32 noundef %2, i32 noundef %3) #5 {
  %5 = alloca ptr, align 8
  %6 = alloca i64, align 8
  %7 = alloca i32, align 4
  %8 = alloca i32, align 4
  store ptr %0, ptr %5, align 8, !tbaa !8
  store i64 %1, ptr %6, align 8, !tbaa !45
  store i32 %2, ptr %7, align 4, !tbaa !75
  store i32 %3, ptr %8, align 4, !tbaa !75
  %9 = load ptr, ptr %5, align 8, !tbaa !8
  %10 = getelementptr inbounds nuw %struct.lean_object, ptr %9, i32 0, i32 0
  store i32 0, ptr %10, align 4, !tbaa !77
  %11 = load i32, ptr %7, align 4, !tbaa !75
  %12 = load ptr, ptr %5, align 8, !tbaa !8
  %13 = getelementptr inbounds nuw %struct.lean_object, ptr %12, i32 0, i32 1
  %14 = load i32, ptr %13, align 4
  %15 = and i32 %11, 255
  %16 = shl i32 %15, 24
  %17 = and i32 %14, 16777215
  %18 = or i32 %17, %16
  store i32 %18, ptr %13, align 4
  %19 = load i32, ptr %8, align 4, !tbaa !75
  %20 = load ptr, ptr %5, align 8, !tbaa !8
  %21 = getelementptr inbounds nuw %struct.lean_object, ptr %20, i32 0, i32 1
  %22 = load i32, ptr %21, align 4
  %23 = and i32 %19, 255
  %24 = shl i32 %23, 16
  %25 = and i32 %22, -16711681
  %26 = or i32 %25, %24
  store i32 %26, ptr %21, align 4
  %27 = load i64, ptr %6, align 8, !tbaa !45
  %28 = trunc i64 %27 to i32
  %29 = load ptr, ptr %5, align 8, !tbaa !8
  %30 = getelementptr inbounds nuw %struct.lean_object, ptr %29, i32 0, i32 1
  %31 = load i32, ptr %30, align 4
  %32 = and i32 %28, 65535
  %33 = and i32 %31, -65536
  %34 = or i32 %33, %32
  store i32 %34, ptr %30, align 4
  ret void
}

; Function Attrs: mustprogress uwtable
define noundef ptr @_ZN4lean16object_compactor5allocEm(ptr noundef nonnull align 8 dereferenceable(144) %0, i64 noundef %1) #0 align 2 {
  %3 = alloca ptr, align 8
  %4 = alloca i64, align 8
  %5 = alloca i64, align 8
  %6 = alloca i64, align 8
  %7 = alloca ptr, align 8
  %8 = alloca ptr, align 8
  store ptr %0, ptr %3, align 8, !tbaa !3
  store i64 %1, ptr %4, align 8, !tbaa !45
  %9 = load ptr, ptr %3, align 8
  call void @llvm.lifetime.start.p0(i64 8, ptr %5) #19
  %10 = load i64, ptr %4, align 8, !tbaa !45
  %11 = urem i64 %10, 8
  store i64 %11, ptr %5, align 8, !tbaa !45
  %12 = load i64, ptr %5, align 8, !tbaa !45
  %13 = icmp ne i64 %12, 0
  br i1 %13, label %14, label %19

14:                                               ; preds = %2
  %15 = load i64, ptr %4, align 8, !tbaa !45
  %16 = add i64 %15, 8
  %17 = load i64, ptr %5, align 8, !tbaa !45
  %18 = sub i64 %16, %17
  store i64 %18, ptr %4, align 8, !tbaa !45
  br label %19

19:                                               ; preds = %14, %2
  br label %20

20:                                               ; preds = %28, %19
  %21 = getelementptr inbounds nuw %"class.lean::object_compactor", ptr %9, i32 0, i32 6
  %22 = load ptr, ptr %21, align 8, !tbaa !32
  %23 = load i64, ptr %4, align 8, !tbaa !45
  %24 = getelementptr inbounds nuw i8, ptr %22, i64 %23
  %25 = getelementptr inbounds nuw %"class.lean::object_compactor", ptr %9, i32 0, i32 7
  %26 = load ptr, ptr %25, align 8, !tbaa !33
  %27 = icmp ugt ptr %24, %26
  br i1 %27, label %28, label %49

28:                                               ; preds = %20
  call void @llvm.lifetime.start.p0(i64 8, ptr %6) #19
  %29 = call noundef i64 @_ZNK4lean16object_compactor8capacityEv(ptr noundef nonnull align 8 dereferenceable(144) %9)
  %30 = mul i64 %29, 2
  store i64 %30, ptr %6, align 8, !tbaa !45
  call void @llvm.lifetime.start.p0(i64 8, ptr %7) #19
  %31 = load i64, ptr %6, align 8, !tbaa !45
  %32 = call noalias ptr @malloc(i64 noundef %31) #21
  store ptr %32, ptr %7, align 8, !tbaa !8
  %33 = load ptr, ptr %7, align 8, !tbaa !8
  %34 = getelementptr inbounds nuw %"class.lean::object_compactor", ptr %9, i32 0, i32 5
  %35 = load ptr, ptr %34, align 8, !tbaa !31
  %36 = call noundef i64 @_ZNK4lean16object_compactor4sizeEv(ptr noundef nonnull align 8 dereferenceable(144) %9)
  call void @llvm.memcpy.p0.p0.i64(ptr align 1 %33, ptr align 1 %35, i64 %36, i1 false)
  %37 = load ptr, ptr %7, align 8, !tbaa !8
  %38 = call noundef i64 @_ZNK4lean16object_compactor4sizeEv(ptr noundef nonnull align 8 dereferenceable(144) %9)
  %39 = getelementptr inbounds nuw i8, ptr %37, i64 %38
  %40 = getelementptr inbounds nuw %"class.lean::object_compactor", ptr %9, i32 0, i32 6
  store ptr %39, ptr %40, align 8, !tbaa !32
  %41 = load ptr, ptr %7, align 8, !tbaa !8
  %42 = load i64, ptr %6, align 8, !tbaa !45
  %43 = getelementptr inbounds nuw i8, ptr %41, i64 %42
  %44 = getelementptr inbounds nuw %"class.lean::object_compactor", ptr %9, i32 0, i32 7
  store ptr %43, ptr %44, align 8, !tbaa !33
  %45 = getelementptr inbounds nuw %"class.lean::object_compactor", ptr %9, i32 0, i32 5
  %46 = load ptr, ptr %45, align 8, !tbaa !31
  call void @free(ptr noundef %46) #19
  %47 = load ptr, ptr %7, align 8, !tbaa !8
  %48 = getelementptr inbounds nuw %"class.lean::object_compactor", ptr %9, i32 0, i32 5
  store ptr %47, ptr %48, align 8, !tbaa !31
  call void @llvm.lifetime.end.p0(i64 8, ptr %7) #19
  call void @llvm.lifetime.end.p0(i64 8, ptr %6) #19
  br label %20, !llvm.loop !46

49:                                               ; preds = %20
  call void @llvm.lifetime.start.p0(i64 8, ptr %8) #19
  %50 = getelementptr inbounds nuw %"class.lean::object_compactor", ptr %9, i32 0, i32 6
  %51 = load ptr, ptr %50, align 8, !tbaa !32
  store ptr %51, ptr %8, align 8, !tbaa !8
  %52 = load ptr, ptr %8, align 8, !tbaa !8
  %53 = load i64, ptr %4, align 8, !tbaa !45
  call void @llvm.memset.p0.i64(ptr align 1 %52, i8 0, i64 %53, i1 false)
  %54 = getelementptr inbounds nuw %"class.lean::object_compactor", ptr %9, i32 0, i32 6
  %55 = load ptr, ptr %54, align 8, !tbaa !32
  %56 = load i64, ptr %4, align 8, !tbaa !45
  %57 = getelementptr inbounds nuw i8, ptr %55, i64 %56
  %58 = getelementptr inbounds nuw %"class.lean::object_compactor", ptr %9, i32 0, i32 6
  store ptr %57, ptr %58, align 8, !tbaa !32
  %59 = load ptr, ptr %8, align 8, !tbaa !8
  call void @llvm.lifetime.end.p0(i64 8, ptr %8) #19
  call void @llvm.lifetime.end.p0(i64 8, ptr %5) #19
  ret ptr %59
}

; Function Attrs: inlinehint mustprogress nounwind willreturn memory(read) uwtable
define available_externally i64 @__gmpz_size(ptr noundef %0) #13 {
  %2 = alloca ptr, align 8
  store ptr %0, ptr %2, align 8, !tbaa !8
  %3 = load ptr, ptr %2, align 8, !tbaa !8
  %4 = getelementptr inbounds nuw %struct.__mpz_struct, ptr %3, i32 0, i32 1
  %5 = load i32, ptr %4, align 4, !tbaa !100
  %6 = icmp sge i32 %5, 0
  br i1 %6, label %7, label %11

7:                                                ; preds = %1
  %8 = load ptr, ptr %2, align 8, !tbaa !8
  %9 = getelementptr inbounds nuw %struct.__mpz_struct, ptr %8, i32 0, i32 1
  %10 = load i32, ptr %9, align 4, !tbaa !100
  br label %16

11:                                               ; preds = %1
  %12 = load ptr, ptr %2, align 8, !tbaa !8
  %13 = getelementptr inbounds nuw %struct.__mpz_struct, ptr %12, i32 0, i32 1
  %14 = load i32, ptr %13, align 4, !tbaa !100
  %15 = sub nsw i32 0, %14
  br label %16

16:                                               ; preds = %11, %7
  %17 = phi i32 [ %10, %7 ], [ %15, %11 ]
  %18 = sext i32 %17 to i64
  ret i64 %18
}

; Function Attrs: inlinehint mustprogress nounwind uwtable
define linkonce_odr hidden noundef ptr @_ZN4lean6to_mpzEP11lean_object(ptr noundef %0) #5 comdat {
  %2 = alloca ptr, align 8
  store ptr %0, ptr %2, align 8, !tbaa !8
  %3 = load ptr, ptr %2, align 8, !tbaa !8
  ret ptr %3
}

; Function Attrs: mustprogress uwtable
define void @_ZN4lean16object_compactor10insert_mpzEP11lean_object(ptr noundef nonnull align 8 dereferenceable(144) %0, ptr noundef %1) #0 align 2 {
  %3 = alloca ptr, align 8
  %4 = alloca ptr, align 8
  %5 = alloca i64, align 8
  %6 = alloca i64, align 8
  %7 = alloca i64, align 8
  %8 = alloca ptr, align 8
  %9 = alloca ptr, align 8
  %10 = alloca ptr, align 8
  store ptr %0, ptr %3, align 8, !tbaa !3
  store ptr %1, ptr %4, align 8, !tbaa !8
  %11 = load ptr, ptr %3, align 8
  call void @llvm.lifetime.start.p0(i64 8, ptr %5) #19
  %12 = load ptr, ptr %4, align 8, !tbaa !8
  %13 = call noundef ptr @_ZN4lean6to_mpzEP11lean_object(ptr noundef %12)
  %14 = getelementptr inbounds nuw %"struct.lean::mpz_object", ptr %13, i32 0, i32 1
  %15 = getelementptr inbounds nuw %"class.lean::mpz", ptr %14, i32 0, i32 0
  %16 = getelementptr inbounds [1 x %struct.__mpz_struct], ptr %15, i64 0, i64 0
  %17 = call i64 @__gmpz_size(ptr noundef %16) #24
  store i64 %17, ptr %5, align 8, !tbaa !45
  call void @llvm.lifetime.start.p0(i64 8, ptr %6) #19
  %18 = load i64, ptr %5, align 8, !tbaa !45
  %19 = mul i64 8, %18
  store i64 %19, ptr %6, align 8, !tbaa !45
  call void @llvm.lifetime.start.p0(i64 8, ptr %7) #19
  %20 = load i64, ptr %6, align 8, !tbaa !45
  %21 = add i64 24, %20
  store i64 %21, ptr %7, align 8, !tbaa !45
  call void @llvm.lifetime.start.p0(i64 8, ptr %8) #19
  %22 = load i64, ptr %7, align 8, !tbaa !45
  %23 = call noundef ptr @_ZN4lean16object_compactor5allocEm(ptr noundef nonnull align 8 dereferenceable(144) %11, i64 noundef %22)
  store ptr %23, ptr %8, align 8, !tbaa !94
  %24 = load ptr, ptr %8, align 8, !tbaa !94
  %25 = load ptr, ptr %4, align 8, !tbaa !8
  %26 = call noundef ptr @_ZN4lean6to_mpzEP11lean_object(ptr noundef %25)
  call void @llvm.memcpy.p0.p0.i64(ptr align 8 %24, ptr align 8 %26, i64 24, i1 false)
  %27 = load ptr, ptr %8, align 8, !tbaa !94
  %28 = load i64, ptr %7, align 8, !tbaa !45
  call void @_ZL24lean_set_non_heap_headerP11lean_objectmjj(ptr noundef %27, i64 noundef %28, i32 noundef 250, i32 noundef 0)
  call void @llvm.lifetime.start.p0(i64 8, ptr %9) #19
  %29 = load ptr, ptr %8, align 8, !tbaa !94
  %30 = getelementptr inbounds nuw %"struct.lean::mpz_object", ptr %29, i32 0, i32 1
  %31 = getelementptr inbounds nuw %"class.lean::mpz", ptr %30, i32 0, i32 0
  %32 = getelementptr inbounds [1 x %struct.__mpz_struct], ptr %31, i64 0, i64 0
  store ptr %32, ptr %9, align 8, !tbaa !8
  call void @llvm.lifetime.start.p0(i64 8, ptr %10) #19
  %33 = load ptr, ptr %8, align 8, !tbaa !94
  %34 = getelementptr inbounds nuw i8, ptr %33, i64 24
  store ptr %34, ptr %10, align 8, !tbaa !8
  %35 = load ptr, ptr %10, align 8, !tbaa !8
  %36 = load ptr, ptr %9, align 8, !tbaa !8
  %37 = getelementptr inbounds nuw %struct.__mpz_struct, ptr %36, i32 0, i32 2
  %38 = load ptr, ptr %37, align 8, !tbaa !96
  %39 = load i64, ptr %6, align 8, !tbaa !45
  call void @llvm.memcpy.p0.p0.i64(ptr align 1 %35, ptr align 8 %38, i64 %39, i1 false)
  %40 = load ptr, ptr %10, align 8, !tbaa !8
  %41 = getelementptr inbounds nuw %"class.lean::object_compactor", ptr %11, i32 0, i32 5
  %42 = load ptr, ptr %41, align 8, !tbaa !31
  %43 = ptrtoint ptr %40 to i64
  %44 = ptrtoint ptr %42 to i64
  %45 = sub i64 %43, %44
  %46 = getelementptr inbounds nuw %"class.lean::object_compactor", ptr %11, i32 0, i32 4
  %47 = load ptr, ptr %46, align 8, !tbaa !9
  %48 = ptrtoint ptr %47 to i64
  %49 = add nsw i64 %45, %48
  %50 = inttoptr i64 %49 to ptr
  %51 = load ptr, ptr %9, align 8, !tbaa !8
  %52 = getelementptr inbounds nuw %struct.__mpz_struct, ptr %51, i32 0, i32 2
  store ptr %50, ptr %52, align 8, !tbaa !96
  %53 = load i64, ptr %5, align 8, !tbaa !45
  %54 = trunc i64 %53 to i32
  %55 = load ptr, ptr %9, align 8, !tbaa !8
  %56 = getelementptr inbounds nuw %struct.__mpz_struct, ptr %55, i32 0, i32 0
  store i32 %54, ptr %56, align 8, !tbaa !99
  %57 = load ptr, ptr %4, align 8, !tbaa !8
  %58 = load ptr, ptr %8, align 8, !tbaa !94
  call void @_ZN4lean16object_compactor4saveEP11lean_objectS2_(ptr noundef nonnull align 8 dereferenceable(144) %11, ptr noundef %57, ptr noundef %58)
  call void @llvm.lifetime.end.p0(i64 8, ptr %10) #19
  call void @llvm.lifetime.end.p0(i64 8, ptr %9) #19
  call void @llvm.lifetime.end.p0(i64 8, ptr %8) #19
  call void @llvm.lifetime.end.p0(i64 8, ptr %7) #19
  call void @llvm.lifetime.end.p0(i64 8, ptr %6) #19
  call void @llvm.lifetime.end.p0(i64 8, ptr %5) #19
  ret void
}