; Function Attrs: mustprogress uwtable
define void @_ZN4lean16object_compactor10insert_mpzEP11lean_object(ptr noundef nonnull align 8 dereferenceable(144) %0, ptr noundef %1) local_unnamed_addr #0 align 2 {
  %3 = alloca %"struct.std::pair.20", align 8
  %4 = getelementptr inbounds nuw i8, ptr %1, i64 12
  %5 = load i32, ptr %4, align 4, !tbaa !81
  %6 = tail call i32 @llvm.abs.i32(i32 %5, i1 true)
  %7 = zext nneg i32 %6 to i64
  %8 = shl nuw nsw i64 %7, 3
  %.biased.i = add nuw nsw i64 %8, 31
  %.0.i = and i64 %.biased.i, 34359738360
  %9 = getelementptr inbounds nuw i8, ptr %0, i64 128
  %10 = getelementptr inbounds nuw i8, ptr %0, i64 136
  %11 = load ptr, ptr %9, align 8, !tbaa !46
  %12 = getelementptr inbounds nuw i8, ptr %11, i64 %.0.i
  %13 = load ptr, ptr %10, align 8, !tbaa !47
  %14 = icmp ugt ptr %12, %13
  br i1 %14, label %.lr.ph.i, label %_ZN4lean16object_compactor5allocEm.exit

.lr.ph.i:                                         ; preds = %2
  %15 = getelementptr inbounds nuw i8, ptr %0, i64 120
  %.pre.i = load ptr, ptr %15, align 8, !tbaa !45
  br label %16

16:                                               ; preds = %16, %.lr.ph.i
  %17 = phi ptr [ %.pre.i, %.lr.ph.i ], [ %24, %16 ]
  %18 = phi ptr [ %13, %.lr.ph.i ], [ %31, %16 ]
  %19 = phi ptr [ %11, %.lr.ph.i ], [ %29, %16 ]
  %20 = ptrtoint ptr %18 to i64
  %21 = ptrtoint ptr %17 to i64
  %22 = sub i64 %20, %21
  %23 = shl i64 %22, 1
  %24 = tail call noalias ptr @malloc(i64 noundef %23) #24
  %25 = ptrtoint ptr %19 to i64
  %26 = sub i64 %25, %21
  tail call void @llvm.memcpy.p0.p0.i64(ptr align 1 %24, ptr align 1 %17, i64 %26, i1 false)
  %27 = getelementptr inbounds nuw i8, ptr %24, i64 %26
  store ptr %27, ptr %9, align 8, !tbaa !46
  %28 = getelementptr inbounds nuw i8, ptr %24, i64 %23
  store ptr %28, ptr %10, align 8, !tbaa !47
  tail call void @free(ptr noundef %17) #22
  store ptr %24, ptr %15, align 8, !tbaa !45
  %29 = load ptr, ptr %9, align 8, !tbaa !46
  %30 = getelementptr inbounds nuw i8, ptr %29, i64 %.0.i
  %31 = load ptr, ptr %10, align 8, !tbaa !47
  %32 = icmp ugt ptr %30, %31
  br i1 %32, label %16, label %_ZN4lean16object_compactor5allocEm.exit, !llvm.loop !56

_ZN4lean16object_compactor5allocEm.exit:          ; preds = %16, %2
  %.lcssa.i = phi ptr [ %11, %2 ], [ %29, %16 ]
  tail call void @llvm.memset.p0.i64(ptr align 1 %.lcssa.i, i8 0, i64 %.0.i, i1 false)
  %33 = load ptr, ptr %9, align 8, !tbaa !46
  %34 = getelementptr inbounds nuw i8, ptr %33, i64 %.0.i
  store ptr %34, ptr %9, align 8, !tbaa !46
  tail call void @llvm.memcpy.p0.p0.i64(ptr noundef nonnull align 8 dereferenceable(24) %.lcssa.i, ptr noundef nonnull align 8 dereferenceable(24) %1, i64 24, i1 false)
  store i32 0, ptr %.lcssa.i, align 4, !tbaa !68
  %35 = getelementptr inbounds nuw i8, ptr %.lcssa.i, i64 4
  %36 = trunc i64 %8 to i32
  %37 = add i32 %36, 24
  %38 = and i32 %37, 65528
  %39 = or disjoint i32 %38, -100663296
  store i32 %39, ptr %35, align 4
  %40 = getelementptr inbounds nuw i8, ptr %.lcssa.i, i64 8
  %41 = getelementptr inbounds nuw i8, ptr %.lcssa.i, i64 24
  %42 = getelementptr inbounds nuw i8, ptr %.lcssa.i, i64 16
  %43 = load ptr, ptr %42, align 8, !tbaa !84
  tail call void @llvm.memcpy.p0.p0.i64(ptr nonnull align 1 %41, ptr align 8 %43, i64 %8, i1 false)
  %44 = getelementptr inbounds nuw i8, ptr %0, i64 120
  %45 = load ptr, ptr %44, align 8, !tbaa !45
  %46 = ptrtoint ptr %41 to i64
  %47 = ptrtoint ptr %45 to i64
  %48 = sub i64 %46, %47
  %49 = getelementptr inbounds nuw i8, ptr %0, i64 112
  %50 = load ptr, ptr %49, align 8, !tbaa !32
  %51 = ptrtoint ptr %50 to i64
  %52 = add nsw i64 %48, %51
  %53 = inttoptr i64 %52 to ptr
  store ptr %53, ptr %42, align 8, !tbaa !84
  store i32 %6, ptr %40, align 8, !tbaa !85
  call void @llvm.lifetime.start.p0(i64 16, ptr nonnull %3) #22
  %54 = ptrtoint ptr %.lcssa.i to i64
  %55 = sub i64 %54, %47
  %56 = add i64 %55, %51
  %57 = inttoptr i64 %56 to ptr
  store ptr %1, ptr %3, align 8
  %58 = getelementptr inbounds nuw i8, ptr %3, i64 8
  store ptr %57, ptr %58, align 8
  %59 = call { ptr, i8 } @_ZNSt10_HashtableIP11lean_objectSt4pairIKS1_S1_E16mi_stl_allocatorIS4_ENSt8__detail10_Select1stESt8equal_toIS1_ESt4hashIS1_ENS7_18_Mod_range_hashingENS7_20_Default_ranged_hashENS7_20_Prime_rehash_policyENS7_17_Hashtable_traitsILb0ELb0ELb1EEEE10_M_emplaceIJS2_IS1_S1_EEEES2_INS7_14_Node_iteratorIS4_Lb0ELb0EEEbESt17integral_constantIbLb1EEDpOT_(ptr noundef nonnull align 8 dereferenceable(144) %0, ptr noundef nonnull align 8 dereferenceable(16) %3)
  call void @llvm.lifetime.end.p0(i64 16, ptr nonnull %3) #22
  ret void
}